target datalayout = "e-m:e-p270:32:32-p271:32:32-p272:64:64-i64:64-i128:128-f80:128-n8:16:32:64-S128"
target triple = "x86_64-pc-linux-gnu"

; Function Attrs: nounwind uwtable
define internal void @decompress_indices(ptr noundef %0, ptr noundef %1) #1 {
  %3 = alloca ptr, align 8
  %4 = alloca ptr, align 8
  %5 = alloca i32, align 4
  %6 = alloca i32, align 4
  %7 = alloca i32, align 4
  store ptr %0, ptr %3, align 8, !tbaa !25
  store ptr %1, ptr %4, align 8, !tbaa !25
  call void @llvm.lifetime.start.p0(i64 4, ptr %5) #7
  call void @llvm.lifetime.start.p0(i64 4, ptr %6) #7
  store i32 0, ptr %5, align 4, !tbaa !29
  br label %8

8:                                                ; preds = %50, %2
  %9 = load i32, ptr %5, align 4, !tbaa !29
  %10 = icmp slt i32 %9, 2
  br i1 %10, label %11, label %53

11:                                               ; preds = %8
  call void @llvm.lifetime.start.p0(i64 4, ptr %7) #7
  %12 = load ptr, ptr %4, align 8, !tbaa !25
  %13 = getelementptr inbounds i8, ptr %12, i64 2
  %14 = load i8, ptr %13, align 1, !tbaa !40
  %15 = zext i8 %14 to i32
  %16 = shl i32 %15, 16
  %17 = load ptr, ptr %4, align 8, !tbaa !25
  %18 = getelementptr inbounds i8, ptr %17, i64 1
  %19 = load i8, ptr %18, align 1, !tbaa !40
  %20 = zext i8 %19 to i32
  %21 = shl i32 %20, 8
  %22 = or i32 %16, %21
  %23 = load ptr, ptr %4, align 8, !tbaa !25
  %24 = getelementptr inbounds i8, ptr %23, i64 0
  %25 = load i8, ptr %24, align 1, !tbaa !40
  %26 = zext i8 %25 to i32
  %27 = or i32 %22, %26
  store i32 %27, ptr %7, align 4, !tbaa !29
  store i32 0, ptr %6, align 4, !tbaa !29
  br label %28

28:                                               ; preds = %42, %11
  %29 = load i32, ptr %6, align 4, !tbaa !29
  %30 = icmp slt i32 %29, 8
  br i1 %30, label %31, label %45

31:                                               ; preds = %28
  %32 = load i32, ptr %7, align 4, !tbaa !29
  %33 = load i32, ptr %6, align 4, !tbaa !29
  %34 = mul nsw i32 %33, 3
  %35 = ashr i32 %32, %34
  %36 = and i32 %35, 7
  %37 = trunc i32 %36 to i8
  %38 = load ptr, ptr %3, align 8, !tbaa !25
  %39 = load i32, ptr %6, align 4, !tbaa !29
  %40 = sext i32 %39 to i64
  %41 = getelementptr inbounds i8, ptr %38, i64 %40
  store i8 %37, ptr %41, align 1, !tbaa !40
  br label %42

42:                                               ; preds = %31
  %43 = load i32, ptr %6, align 4, !tbaa !29
  %44 = add nsw i32 %43, 1
  store i32 %44, ptr %6, align 4, !tbaa !29
  br label %28, !llvm.loop !84

45:                                               ; preds = %28
  %46 = load ptr, ptr %4, align 8, !tbaa !25
  %47 = getelementptr inbounds i8, ptr %46, i64 3
  store ptr %47, ptr %4, align 8, !tbaa !25
  %48 = load ptr, ptr %3, align 8, !tbaa !25
  %49 = getelementptr inbounds i8, ptr %48, i64 8
  store ptr %49, ptr %3, align 8, !tbaa !25
  call void @llvm.lifetime.end.p0(i64 4, ptr %7) #7
  br label %50

50:                                               ; preds = %45
  %51 = load i32, ptr %5, align 4, !tbaa !29
  %52 = add nsw i32 %51, 1
  store i32 %52, ptr %5, align 4, !tbaa !29
  br label %8, !llvm.loop !85

53:                                               ; preds = %8
  call void @llvm.lifetime.end.p0(i64 4, ptr %6) #7
  call void @llvm.lifetime.end.p0(i64 4, ptr %5) #7
  ret void
}

; Function Attrs: inlinehint nounwind uwtable
define internal void @rgtc_block_internal(ptr noundef %0, i64 noundef %1, ptr noundef %2, ptr noundef %3, i32 noundef %4, i32 noundef %5, i32 noundef %6) #2 {
  %8 = alloca ptr, align 8
  %9 = alloca i64, align 8
  %10 = alloca ptr, align 8
  %11 = alloca ptr, align 8
  %12 = alloca i32, align 4
  %13 = alloca i32, align 4
  %14 = alloca i32, align 4
  %15 = alloca [16 x i8], align 16
  %16 = alloca i32, align 4
  %17 = alloca i32, align 4
  %18 = alloca i32, align 4
  %19 = alloca i32, align 4
  %20 = alloca i32, align 4
  store ptr %0, ptr %8, align 8, !tbaa !25
  store i64 %1, ptr %9, align 8, !tbaa !27
  store ptr %2, ptr %10, align 8, !tbaa !25
  store ptr %3, ptr %11, align 8, !tbaa !79
  store i32 %4, ptr %12, align 4, !tbaa !29
  store i32 %5, ptr %13, align 4, !tbaa !29
  store i32 %6, ptr %14, align 4, !tbaa !29
  call void @llvm.lifetime.start.p0(i64 16, ptr %15) #7
  call void @llvm.lifetime.start.p0(i64 4, ptr %16) #7
  call void @llvm.lifetime.start.p0(i64 4, ptr %17) #7
  %21 = getelementptr inbounds [16 x i8], ptr %15, i64 0, i64 0
  %22 = load ptr, ptr %10, align 8, !tbaa !25
  %23 = getelementptr inbounds i8, ptr %22, i64 2
  call void @decompress_indices(ptr noundef %21, ptr noundef %23)
  store i32 0, ptr %17, align 4, !tbaa !29
  br label %24

24:                                               ; preds = %97, %7
  %25 = load i32, ptr %17, align 4, !tbaa !29
  %26 = icmp slt i32 %25, 4
  br i1 %26, label %27, label %100

27:                                               ; preds = %24
  store i32 0, ptr %16, align 4, !tbaa !29
  br label %28

28:                                               ; preds = %93, %27
  %29 = load i32, ptr %16, align 4, !tbaa !29
  %30 = icmp slt i32 %29, 4
  br i1 %30, label %31, label %96

31:                                               ; preds = %28
  call void @llvm.lifetime.start.p0(i64 4, ptr %18) #7
  %32 = load i32, ptr %16, align 4, !tbaa !29
  %33 = load i32, ptr %17, align 4, !tbaa !29
  %34 = mul nsw i32 %33, 4
  %35 = add nsw i32 %32, %34
  %36 = sext i32 %35 to i64
  %37 = getelementptr inbounds [16 x i8], ptr %15, i64 0, i64 %36
  %38 = load i8, ptr %37, align 1, !tbaa !40
  %39 = zext i8 %38 to i32
  store i32 %39, ptr %18, align 4, !tbaa !29
  call void @llvm.lifetime.start.p0(i64 4, ptr %19) #7
  %40 = load ptr, ptr %11, align 8, !tbaa !79
  %41 = load i32, ptr %18, align 4, !tbaa !29
  %42 = sext i32 %41 to i64
  %43 = getelementptr inbounds i32, ptr %40, i64 %42
  %44 = load i32, ptr %43, align 4, !tbaa !29
  store i32 %44, ptr %19, align 4, !tbaa !29
  %45 = load i32, ptr %12, align 4, !tbaa !29
  %46 = icmp ne i32 %45, 0
  br i1 %46, label %47, label %64

47:                                               ; preds = %31
  %48 = load i32, ptr %19, align 4, !tbaa !29
  %49 = trunc i32 %48 to i8
  %50 = load ptr, ptr %8, align 8, !tbaa !25
  %51 = load i32, ptr %16, align 4, !tbaa !29
  %52 = load i32, ptr %14, align 4, !tbaa !29
  %53 = mul nsw i32 %51, %52
  %54 = sext i32 %53 to i64
  %55 = load i32, ptr %17, align 4, !tbaa !29
  %56 = sext i32 %55 to i64
  %57 = load i64, ptr %9, align 8, !tbaa !27
  %58 = mul nsw i64 %56, %57
  %59 = add nsw i64 %54, %58
  %60 = load i32, ptr %13, align 4, !tbaa !29
  %61 = sext i32 %60 to i64
  %62 = add nsw i64 %59, %61
  %63 = getelementptr inbounds i8, ptr %50, i64 %62
  store i8 %49, ptr %63, align 1, !tbaa !40
  br label %92

64:                                               ; preds = %31
  call void @llvm.lifetime.start.p0(i64 4, ptr %20) #7
  %65 = load i32, ptr %19, align 4, !tbaa !29
  %66 = trunc i32 %65 to i8
  %67 = zext i8 %66 to i32
  %68 = shl i32 %67, 0
  %69 = load i32, ptr %19, align 4, !tbaa !29
  %70 = trunc i32 %69 to i8
  %71 = zext i8 %70 to i32
  %72 = shl i32 %71, 8
  %73 = or i32 %68, %72
  %74 = load i32, ptr %19, align 4, !tbaa !29
  %75 = trunc i32 %74 to i8
  %76 = zext i8 %75 to i32
  %77 = shl i32 %76, 16
  %78 = or i32 %73, %77
  %79 = or i32 %78, -16777216
  store i32 %79, ptr %20, align 4, !tbaa !29
  %80 = load i32, ptr %20, align 4, !tbaa !29
  %81 = load ptr, ptr %8, align 8, !tbaa !25
  %82 = load i32, ptr %16, align 4, !tbaa !29
  %83 = load i32, ptr %14, align 4, !tbaa !29
  %84 = mul nsw i32 %82, %83
  %85 = sext i32 %84 to i64
  %86 = getelementptr inbounds i8, ptr %81, i64 %85
  %87 = load i32, ptr %17, align 4, !tbaa !29
  %88 = sext i32 %87 to i64
  %89 = load i64, ptr %9, align 8, !tbaa !27
  %90 = mul nsw i64 %88, %89
  %91 = getelementptr inbounds i8, ptr %86, i64 %90
  store i32 %80, ptr %91, align 1, !tbaa !40
  call void @llvm.lifetime.end.p0(i64 4, ptr %20) #7
  br label %92

92:                                               ; preds = %64, %47
  call void @llvm.lifetime.end.p0(i64 4, ptr %19) #7
  call void @llvm.lifetime.end.p0(i64 4, ptr %18) #7
  br label %93

93:                                               ; preds = %92
  %94 = load i32, ptr %16, align 4, !tbaa !29
  %95 = add nsw i32 %94, 1
  store i32 %95, ptr %16, align 4, !tbaa !29
  br label %28, !llvm.loop !86

96:                                               ; preds = %28
  br label %97

97:                                               ; preds = %96
  %98 = load i32, ptr %17, align 4, !tbaa !29
  %99 = add nsw i32 %98, 1
  store i32 %99, ptr %17, align 4, !tbaa !29
  br label %24, !llvm.loop !87

100:                                              ; preds = %24
  call void @llvm.lifetime.end.p0(i64 4, ptr %17) #7
  call void @llvm.lifetime.end.p0(i64 4, ptr %16) #7
  call void @llvm.lifetime.end.p0(i64 16, ptr %15) #7
  ret void
}

; Function Attrs: inlinehint nounwind uwtable
define internal void @rgtc1_block_internal(ptr noundef %0, i64 noundef %1, ptr noundef %2, i32 noundef %3, i32 noundef %4, i32 noundef %5, i32 noundef %6) #2 {
  %8 = alloca ptr, align 8
  %9 = alloca i64, align 8
  %10 = alloca ptr, align 8
  %11 = alloca i32, align 4
  %12 = alloca i32, align 4
  %13 = alloca i32, align 4
  %14 = alloca i32, align 4
  %15 = alloca [8 x i32], align 16
  %16 = alloca i32, align 4
  %17 = alloca i32, align 4
  store ptr %0, ptr %8, align 8, !tbaa !25
  store i64 %1, ptr %9, align 8, !tbaa !27
  store ptr %2, ptr %10, align 8, !tbaa !25
  store i32 %3, ptr %11, align 4, !tbaa !29
  store i32 %4, ptr %12, align 4, !tbaa !29
  store i32 %5, ptr %13, align 4, !tbaa !29
  store i32 %6, ptr %14, align 4, !tbaa !29
  call void @llvm.lifetime.start.p0(i64 32, ptr %15) #7
  call void @llvm.lifetime.start.p0(i64 4, ptr %16) #7
  call void @llvm.lifetime.start.p0(i64 4, ptr %17) #7
  %18 = load i32, ptr %11, align 4, !tbaa !29
  %19 = icmp ne i32 %18, 0
  br i1 %19, label %20, label %31

20:                                               ; preds = %7
  %21 = load ptr, ptr %10, align 8, !tbaa !25
  %22 = getelementptr inbounds i8, ptr %21, i64 0
  %23 = load i8, ptr %22, align 1, !tbaa !40
  %24 = sext i8 %23 to i32
  %25 = add nsw i32 %24, 128
  store i32 %25, ptr %16, align 4, !tbaa !29
  %26 = load ptr, ptr %10, align 8, !tbaa !25
  %27 = getelementptr inbounds i8, ptr %26, i64 1
  %28 = load i8, ptr %27, align 1, !tbaa !40
  %29 = sext i8 %28 to i32
  %30 = add nsw i32 %29, 128
  store i32 %30, ptr %17, align 4, !tbaa !29
  br label %40

31:                                               ; preds = %7
  %32 = load ptr, ptr %10, align 8, !tbaa !25
  %33 = getelementptr inbounds i8, ptr %32, i64 0
  %34 = load i8, ptr %33, align 1, !tbaa !40
  %35 = zext i8 %34 to i32
  store i32 %35, ptr %16, align 4, !tbaa !29
  %36 = load ptr, ptr %10, align 8, !tbaa !25
  %37 = getelementptr inbounds i8, ptr %36, i64 1
  %38 = load i8, ptr %37, align 1, !tbaa !40
  %39 = zext i8 %38 to i32
  store i32 %39, ptr %17, align 4, !tbaa !29
  br label %40

40:                                               ; preds = %31, %20
  %41 = load i32, ptr %16, align 4, !tbaa !29
  %42 = getelementptr inbounds [8 x i32], ptr %15, i64 0, i64 0
  store i32 %41, ptr %42, align 16, !tbaa !29
  %43 = load i32, ptr %17, align 4, !tbaa !29
  %44 = getelementptr inbounds [8 x i32], ptr %15, i64 0, i64 1
  store i32 %43, ptr %44, align 4, !tbaa !29
  %45 = load i32, ptr %16, align 4, !tbaa !29
  %46 = load i32, ptr %17, align 4, !tbaa !29
  %47 = icmp sgt i32 %45, %46
  br i1 %47, label %48, label %91

48:                                               ; preds = %40
  %49 = load i32, ptr %16, align 4, !tbaa !29
  %50 = mul nsw i32 6, %49
  %51 = load i32, ptr %17, align 4, !tbaa !29
  %52 = mul nsw i32 1, %51
  %53 = add nsw i32 %50, %52
  %54 = sdiv i32 %53, 7
  %55 = getelementptr inbounds [8 x i32], ptr %15, i64 0, i64 2
  store i32 %54, ptr %55, align 8, !tbaa !29
  %56 = load i32, ptr %16, align 4, !tbaa !29
  %57 = mul nsw i32 5, %56
  %58 = load i32, ptr %17, align 4, !tbaa !29
  %59 = mul nsw i32 2, %58
  %60 = add nsw i32 %57, %59
  %61 = sdiv i32 %60, 7
  %62 = getelementptr inbounds [8 x i32], ptr %15, i64 0, i64 3
  store i32 %61, ptr %62, align 4, !tbaa !29
  %63 = load i32, ptr %16, align 4, !tbaa !29
  %64 = mul nsw i32 4, %63
  %65 = load i32, ptr %17, align 4, !tbaa !29
  %66 = mul nsw i32 3, %65
  %67 = add nsw i32 %64, %66
  %68 = sdiv i32 %67, 7
  %69 = getelementptr inbounds [8 x i32], ptr %15, i64 0, i64 4
  store i32 %68, ptr %69, align 16, !tbaa !29
  %70 = load i32, ptr %16, align 4, !tbaa !29
  %71 = mul nsw i32 3, %70
  %72 = load i32, ptr %17, align 4, !tbaa !29
  %73 = mul nsw i32 4, %72
  %74 = add nsw i32 %71, %73
  %75 = sdiv i32 %74, 7
  %76 = getelementptr inbounds [8 x i32], ptr %15, i64 0, i64 5
  store i32 %75, ptr %76, align 4, !tbaa !29
  %77 = load i32, ptr %16, align 4, !tbaa !29
  %78 = mul nsw i32 2, %77
  %79 = load i32, ptr %17, align 4, !tbaa !29
  %80 = mul nsw i32 5, %79
  %81 = add nsw i32 %78, %80
  %82 = sdiv i32 %81, 7
  %83 = getelementptr inbounds [8 x i32], ptr %15, i64 0, i64 6
  store i32 %82, ptr %83, align 8, !tbaa !29
  %84 = load i32, ptr %16, align 4, !tbaa !29
  %85 = mul nsw i32 1, %84
  %86 = load i32, ptr %17, align 4, !tbaa !29
  %87 = mul nsw i32 6, %86
  %88 = add nsw i32 %85, %87
  %89 = sdiv i32 %88, 7
  %90 = getelementptr inbounds [8 x i32], ptr %15, i64 0, i64 7
  store i32 %89, ptr %90, align 4, !tbaa !29
  br label %122

91:                                               ; preds = %40
  %92 = load i32, ptr %16, align 4, !tbaa !29
  %93 = mul nsw i32 4, %92
  %94 = load i32, ptr %17, align 4, !tbaa !29
  %95 = mul nsw i32 1, %94
  %96 = add nsw i32 %93, %95
  %97 = sdiv i32 %96, 5
  %98 = getelementptr inbounds [8 x i32], ptr %15, i64 0, i64 2
  store i32 %97, ptr %98, align 8, !tbaa !29
  %99 = load i32, ptr %16, align 4, !tbaa !29
  %100 = mul nsw i32 3, %99
  %101 = load i32, ptr %17, align 4, !tbaa !29
  %102 = mul nsw i32 2, %101
  %103 = add nsw i32 %100, %102
  %104 = sdiv i32 %103, 5
  %105 = getelementptr inbounds [8 x i32], ptr %15, i64 0, i64 3
  store i32 %104, ptr %105, align 4, !tbaa !29
  %106 = load i32, ptr %16, align 4, !tbaa !29
  %107 = mul nsw i32 2, %106
  %108 = load i32, ptr %17, align 4, !tbaa !29
  %109 = mul nsw i32 3, %108
  %110 = add nsw i32 %107, %109
  %111 = sdiv i32 %110, 5
  %112 = getelementptr inbounds [8 x i32], ptr %15, i64 0, i64 4
  store i32 %111, ptr %112, align 16, !tbaa !29
  %113 = load i32, ptr %16, align 4, !tbaa !29
  %114 = mul nsw i32 1, %113
  %115 = load i32, ptr %17, align 4, !tbaa !29
  %116 = mul nsw i32 4, %115
  %117 = add nsw i32 %114, %116
  %118 = sdiv i32 %117, 5
  %119 = getelementptr inbounds [8 x i32], ptr %15, i64 0, i64 5
  store i32 %118, ptr %119, align 4, !tbaa !29
  %120 = getelementptr inbounds [8 x i32], ptr %15, i64 0, i64 6
  store i32 0, ptr %120, align 8, !tbaa !29
  %121 = getelementptr inbounds [8 x i32], ptr %15, i64 0, i64 7
  store i32 255, ptr %121, align 4, !tbaa !29
  br label %122

122:                                              ; preds = %91, %48
  %123 = load ptr, ptr %8, align 8, !tbaa !25
  %124 = load i64, ptr %9, align 8, !tbaa !27
  %125 = load ptr, ptr %10, align 8, !tbaa !25
  %126 = getelementptr inbounds [8 x i32], ptr %15, i64 0, i64 0
  %127 = load i32, ptr %12, align 4, !tbaa !29
  %128 = load i32, ptr %13, align 4, !tbaa !29
  %129 = load i32, ptr %14, align 4, !tbaa !29
  call void @rgtc_block_internal(ptr noundef %123, i64 noundef %124, ptr noundef %125, ptr noundef %126, i32 noundef %127, i32 noundef %128, i32 noundef %129)
  call void @llvm.lifetime.end.p0(i64 4, ptr %17) #7
  call void @llvm.lifetime.end.p0(i64 4, ptr %16) #7
  call void @llvm.lifetime.end.p0(i64 32, ptr %15) #7
  ret void
}