; Function Attrs: inlinehint nofree norecurse nosync nounwind memory(argmem: readwrite) uwtable
define internal fastcc void @rgtc1_block_internal(ptr noundef writeonly captures(none) %0, i64 noundef %1, ptr noundef readonly captures(none) %2, i32 noundef range(i32 0, 2) %3, i32 noundef range(i32 0, 2) %4, i32 noundef range(i32 0, 4) %5, i32 noundef range(i32 1, 5) %6) unnamed_addr #3 {
  %8 = alloca [16 x i8], align 16
  %9 = alloca [8 x i32], align 16
  call void @llvm.lifetime.start.p0(i64 32, ptr nonnull %9) #7
  %.not = icmp eq i32 %3, 0
  %10 = load i8, ptr %2, align 1, !tbaa !23
  br i1 %.not, label %18, label %11

11:                                               ; preds = %7
  %12 = sext i8 %10 to i32
  %13 = add nsw i32 %12, 128
  %14 = getelementptr inbounds nuw i8, ptr %2, i64 1
  %15 = load i8, ptr %14, align 1, !tbaa !23
  %16 = sext i8 %15 to i32
  %17 = add nsw i32 %16, 128
  br label %23

18:                                               ; preds = %7
  %19 = zext i8 %10 to i32
  %20 = getelementptr inbounds nuw i8, ptr %2, i64 1
  %21 = load i8, ptr %20, align 1, !tbaa !23
  %22 = zext i8 %21 to i32
  br label %23

23:                                               ; preds = %18, %11
  %.034 = phi i32 [ %13, %11 ], [ %19, %18 ]
  %.0 = phi i32 [ %17, %11 ], [ %22, %18 ]
  store i32 %.034, ptr %9, align 16, !tbaa !67
  %24 = getelementptr inbounds nuw i8, ptr %9, i64 4
  store i32 %.0, ptr %24, align 4, !tbaa !67
  %25 = icmp samesign ugt i32 %.034, %.0
  %26 = shl nuw nsw i32 %.0, 1
  %27 = mul nuw nsw i32 %.0, 3
  br i1 %25, label %28, label %49

28:                                               ; preds = %23
  %29 = mul nuw nsw i32 %.034, 6
  %30 = add nuw nsw i32 %29, %.0
  %.lhs.trunc = trunc nuw nsw i32 %30 to i16
  %31 = udiv i16 %.lhs.trunc, 7
  %32 = mul nuw nsw i32 %.034, 5
  %33 = add nuw nsw i32 %26, %32
  %.lhs.trunc35 = trunc nuw nsw i32 %33 to i16
  %34 = udiv i16 %.lhs.trunc35, 7
  %35 = shl nuw nsw i32 %.034, 2
  %36 = add nuw nsw i32 %27, %35
  %.lhs.trunc37 = trunc nuw nsw i32 %36 to i16
  %37 = udiv i16 %.lhs.trunc37, 7
  %38 = mul nuw nsw i32 %.034, 3
  %39 = shl nuw nsw i32 %.0, 2
  %40 = add nuw nsw i32 %39, %38
  %.lhs.trunc39 = trunc nuw nsw i32 %40 to i16
  %41 = udiv i16 %.lhs.trunc39, 7
  %42 = shl nuw nsw i32 %.034, 1
  %43 = mul nuw nsw i32 %.0, 5
  %44 = add nuw nsw i32 %43, %42
  %.lhs.trunc41 = trunc nuw nsw i32 %44 to i16
  %45 = udiv i16 %.lhs.trunc41, 7
  %.zext42 = zext nneg i16 %45 to i32
  %46 = mul nuw nsw i32 %.0, 6
  %47 = add nuw nsw i32 %46, %.034
  %.lhs.trunc43 = trunc nuw nsw i32 %47 to i16
  %48 = udiv i16 %.lhs.trunc43, 7
  %.zext44 = zext nneg i16 %48 to i32
  br label %62

49:                                               ; preds = %23
  %50 = shl nuw nsw i32 %.034, 2
  %51 = add nuw nsw i32 %50, %.0
  %.lhs.trunc45 = trunc nuw nsw i32 %51 to i16
  %52 = udiv i16 %.lhs.trunc45, 5
  %53 = mul nuw nsw i32 %.034, 3
  %54 = add nuw nsw i32 %26, %53
  %.lhs.trunc47 = trunc nuw nsw i32 %54 to i16
  %55 = udiv i16 %.lhs.trunc47, 5
  %56 = shl nuw nsw i32 %.034, 1
  %57 = add nuw nsw i32 %27, %56
  %.lhs.trunc49 = trunc nuw nsw i32 %57 to i16
  %58 = udiv i16 %.lhs.trunc49, 5
  %59 = shl nuw nsw i32 %.0, 2
  %60 = add nuw nsw i32 %59, %.034
  %.lhs.trunc51 = trunc nuw nsw i32 %60 to i16
  %61 = udiv i16 %.lhs.trunc51, 5
  br label %62

62:                                               ; preds = %49, %28
  %.zext46.sink.in = phi i16 [ %31, %28 ], [ %52, %49 ]
  %.zext48.sink.in = phi i16 [ %34, %28 ], [ %55, %49 ]
  %.zext50.sink.in = phi i16 [ %37, %28 ], [ %58, %49 ]
  %.zext52.sink.in = phi i16 [ %41, %28 ], [ %61, %49 ]
  %.sink55 = phi i32 [ %.zext42, %28 ], [ 0, %49 ]
  %.sink = phi i32 [ %.zext44, %28 ], [ 255, %49 ]
  %.zext52.sink = zext nneg i16 %.zext52.sink.in to i32
  %.zext50.sink = zext nneg i16 %.zext50.sink.in to i32
  %.zext48.sink = zext nneg i16 %.zext48.sink.in to i32
  %.zext46.sink = zext nneg i16 %.zext46.sink.in to i32
  %63 = getelementptr inbounds nuw i8, ptr %9, i64 8
  store i32 %.zext46.sink, ptr %63, align 8, !tbaa !67
  %64 = getelementptr inbounds nuw i8, ptr %9, i64 12
  store i32 %.zext48.sink, ptr %64, align 4, !tbaa !67
  %65 = getelementptr inbounds nuw i8, ptr %9, i64 16
  store i32 %.zext50.sink, ptr %65, align 16, !tbaa !67
  %66 = getelementptr inbounds nuw i8, ptr %9, i64 20
  store i32 %.zext52.sink, ptr %66, align 4, !tbaa !67
  %67 = getelementptr inbounds nuw i8, ptr %9, i64 24
  store i32 %.sink55, ptr %67, align 8, !tbaa !67
  %68 = getelementptr inbounds nuw i8, ptr %9, i64 28
  store i32 %.sink, ptr %68, align 4, !tbaa !67
  call void @llvm.lifetime.start.p0(i64 16, ptr nonnull %8) #7
  %69 = getelementptr inbounds nuw i8, ptr %2, i64 2
  br label %70

70:                                               ; preds = %86, %62
  %.018.i.i = phi ptr [ %8, %62 ], [ %88, %86 ]
  %71 = phi i1 [ true, %62 ], [ false, %86 ]
  %.01416.i.i = phi ptr [ %69, %62 ], [ %87, %86 ]
  %72 = getelementptr i8, ptr %.01416.i.i, i64 1
  %73 = load i16, ptr %72, align 1
  %74 = zext i16 %73 to i32
  %75 = shl nuw nsw i32 %74, 8
  %76 = load i8, ptr %.01416.i.i, align 1, !tbaa !23
  %77 = zext i8 %76 to i32
  %78 = or disjoint i32 %75, %77
  br label %79

79:                                               ; preds = %79, %70
  %indvars.iv.i.i = phi i64 [ 0, %70 ], [ %indvars.iv.next.i.i, %79 ]
  %80 = trunc i64 %indvars.iv.i.i to i32
  %81 = mul i32 %80, 3
  %82 = lshr i32 %78, %81
  %83 = trunc i32 %82 to i8
  %84 = and i8 %83, 7
  %85 = getelementptr inbounds nuw i8, ptr %.018.i.i, i64 %indvars.iv.i.i
  store i8 %84, ptr %85, align 1, !tbaa !23
  %indvars.iv.next.i.i = add nuw nsw i64 %indvars.iv.i.i, 1
  %exitcond.not.i.i = icmp eq i64 %indvars.iv.next.i.i, 8
  br i1 %exitcond.not.i.i, label %86, label %79, !llvm.loop !72

86:                                               ; preds = %79
  %87 = getelementptr inbounds nuw i8, ptr %.01416.i.i, i64 3
  %88 = getelementptr inbounds nuw i8, ptr %.018.i.i, i64 8
  br i1 %71, label %70, label %decompress_indices.exit.preheader.i, !llvm.loop !73

decompress_indices.exit.preheader.i:              ; preds = %86
  %.not.i = icmp eq i32 %4, 0
  %89 = zext nneg i32 %5 to i64
  %invariant.gep29.i = getelementptr i8, ptr %0, i64 %89
  %90 = zext nneg i32 %6 to i64
  br i1 %.not.i, label %.preheader.us.i, label %.preheader.i

.preheader.us.i:                                  ; preds = %decompress_indices.exit.preheader.i, %.split.us.us.i
  %indvars.iv44.i = phi i64 [ %indvars.iv.next45.i, %.split.us.us.i ], [ 0, %decompress_indices.exit.preheader.i ]
  %91 = shl nuw nsw i64 %indvars.iv44.i, 2
  %92 = mul nsw i64 %indvars.iv44.i, %1
  %invariant.gep27.us.i = getelementptr i8, ptr %0, i64 %92
  br label %93

93:                                               ; preds = %93, %.preheader.us.i
  %indvars.iv40.i = phi i64 [ %indvars.iv.next41.i, %93 ], [ 0, %.preheader.us.i ]
  %94 = add nuw nsw i64 %indvars.iv40.i, %91
  %95 = getelementptr inbounds nuw [16 x i8], ptr %8, i64 0, i64 %94
  %96 = load i8, ptr %95, align 1, !tbaa !23
  %97 = zext i8 %96 to i64
  %98 = getelementptr inbounds nuw i32, ptr %9, i64 %97
  %99 = load i32, ptr %98, align 4, !tbaa !67
  %100 = and i32 %99, 255
  %101 = mul nuw nsw i32 %100, 65793
  %102 = or disjoint i32 %101, -16777216
  %103 = mul nuw nsw i64 %indvars.iv40.i, %90
  %gep28.us.us.i = getelementptr i8, ptr %invariant.gep27.us.i, i64 %103
  store i32 %102, ptr %gep28.us.us.i, align 1, !tbaa !23
  %indvars.iv.next41.i = add nuw nsw i64 %indvars.iv40.i, 1
  %exitcond43.not.i = icmp eq i64 %indvars.iv.next41.i, 4
  br i1 %exitcond43.not.i, label %.split.us.us.i, label %93, !llvm.loop !76

.split.us.us.i:                                   ; preds = %93
  %indvars.iv.next45.i = add nuw nsw i64 %indvars.iv44.i, 1
  %exitcond47.not.i = icmp eq i64 %indvars.iv.next45.i, 4
  br i1 %exitcond47.not.i, label %rgtc_block_internal.exit, label %.preheader.us.i, !llvm.loop !77

.preheader.i:                                     ; preds = %decompress_indices.exit.preheader.i, %.split.i
  %indvars.iv36.i = phi i64 [ %indvars.iv.next37.i, %.split.i ], [ 0, %decompress_indices.exit.preheader.i ]
  %104 = shl nuw nsw i64 %indvars.iv36.i, 2
  %105 = mul nsw i64 %indvars.iv36.i, %1
  %gep30.i = getelementptr i8, ptr %invariant.gep29.i, i64 %105
  br label %106

106:                                              ; preds = %106, %.preheader.i
  %indvars.iv.i = phi i64 [ 0, %.preheader.i ], [ %indvars.iv.next.i, %106 ]
  %107 = add nuw nsw i64 %indvars.iv.i, %104
  %108 = getelementptr inbounds nuw [16 x i8], ptr %8, i64 0, i64 %107
  %109 = load i8, ptr %108, align 1, !tbaa !23
  %110 = zext i8 %109 to i64
  %111 = getelementptr inbounds nuw i32, ptr %9, i64 %110
  %112 = load i32, ptr %111, align 4, !tbaa !67
  %113 = trunc i32 %112 to i8
  %114 = mul nuw nsw i64 %indvars.iv.i, %90
  %gep.i = getelementptr i8, ptr %gep30.i, i64 %114
  store i8 %113, ptr %gep.i, align 1, !tbaa !23
  %indvars.iv.next.i = add nuw nsw i64 %indvars.iv.i, 1
  %exitcond.not.i = icmp eq i64 %indvars.iv.next.i, 4
  br i1 %exitcond.not.i, label %.split.i, label %106, !llvm.loop !76

.split.i:                                         ; preds = %106
  %indvars.iv.next37.i = add nuw nsw i64 %indvars.iv36.i, 1
  %exitcond39.not.i = icmp eq i64 %indvars.iv.next37.i, 4
  br i1 %exitcond39.not.i, label %rgtc_block_internal.exit, label %.preheader.i, !llvm.loop !77

rgtc_block_internal.exit:                         ; preds = %.split.i, %.split.us.us.i
  call void @llvm.lifetime.end.p0(i64 16, ptr nonnull %8) #7
  call void @llvm.lifetime.end.p0(i64 32, ptr nonnull %9) #7
  ret void
}